#include <math.h>
#include <stdio.h>
#include <stdlib.h>
#include <string.h>

int main(){
	int n,i;
	scanf("%d",&n);
	if(n!=1){
		while(1){
			if(n%2!=0&&n!=1){
			    n=n*3+1;
			    printf("%d*3+1=%d\n",(n-1)/3,n);
			}else if(n%2==0&&n!=1){
		    	n=n/2;
		    	printf("%d/2=%d\n",2*n,n);
			}else if(n==1){
				printf("End");
			    break;
			}
		}
	}else if(n==1){
		printf("End");
	}
    return 0;
}

